; Function Attrs: mustprogress nounwind uwtable
define hidden noundef zeroext i1 @_ZN18OpenImageIO_v2_6_09NullInput16read_native_tileEiiiiiPv(ptr noundef nonnull align 8 dereferenceable(416) %this, i32 %0, i32 %1, i32 %2, i32 %3, i32 %4, ptr nocapture noundef writeonly %data) unnamed_addr #6 align 2 {
entry:
  %m_value = getelementptr inbounds i8, ptr %this, i64 232
  %_M_finish.i = getelementptr inbounds i8, ptr %this, i64 240
  %5 = load ptr, ptr %_M_finish.i, align 8
  %6 = load ptr, ptr %m_value, align 8
  %tobool.not = icmp eq ptr %5, %6
  %m_spec11 = getelementptr inbounds i8, ptr %this, i64 8
  br i1 %tobool.not, label %if.else, label %if.then

if.then:                                          ; preds = %entry
  %call6 = tail call noundef i64 @_ZNK18OpenImageIO_v2_6_09ImageSpec11pixel_bytesEb(ptr noundef nonnull align 8 dereferenceable(160) %m_spec11, i1 noundef zeroext false) #18
  %call8 = tail call noundef i64 @_ZNK18OpenImageIO_v2_6_09ImageSpec11tile_pixelsEv(ptr noundef nonnull align 8 dereferenceable(160) %m_spec11) #18
  %cmp5.not = icmp eq i64 %call8, 0
  br i1 %cmp5.not, label %if.end, label %for.body

for.body:                                         ; preds = %if.then, %for.body
  %x.06 = phi i64 [ %inc, %for.body ], [ 0, %if.then ]
  %mul = mul i64 %x.06, %call6
  %add.ptr = getelementptr inbounds i8, ptr %data, i64 %mul
  %7 = load ptr, ptr %m_value, align 8
  tail call void @llvm.memcpy.p0.p0.i64(ptr align 1 %add.ptr, ptr align 1 %7, i64 %call6, i1 false)
  %inc = add nuw i64 %x.06, 1
  %exitcond.not = icmp eq i64 %inc, %call8
  br i1 %exitcond.not, label %if.end, label %for.body, !llvm.loop !13

if.else:                                          ; preds = %entry
  %call12 = tail call noundef i64 @_ZNK18OpenImageIO_v2_6_09ImageSpec10tile_bytesEb(ptr noundef nonnull align 8 dereferenceable(160) %m_spec11, i1 noundef zeroext false) #18
  tail call void @llvm.memset.p0.i64(ptr align 1 %data, i8 0, i64 %call12, i1 false)
  br label %if.end

if.end:                                           ; preds = %for.body, %if.then, %if.else
  ret i1 true
}